; ModuleID = 'source-C-CXX/57/746.cpp'
source_filename = "source-C-CXX/57/746.cpp"
target datalayout = "e-m:e-p270:32:32-p271:32:32-p272:64:64-i64:64-f80:128-n8:16:32:64-S128"
target triple = "x86_64-pc-linux-gnu"

%"class.std::ios_base::Init" = type { i8 }
%"class.std::basic_istream" = type { i32 (...)**, i64, %"class.std::basic_ios" }
%"class.std::basic_ios" = type { %"class.std::ios_base", %"class.std::basic_ostream"*, i8, i8, %"class.std::basic_streambuf"*, %"class.std::ctype"*, %"class.std::num_put"*, %"class.std::num_get"* }
%"class.std::ios_base" = type { i32 (...)**, i64, i64, i32, i32, i32, %"struct.std::ios_base::_Callback_list"*, %"struct.std::ios_base::_Words", [8 x %"struct.std::ios_base::_Words"], i32, %"struct.std::ios_base::_Words"*, %"class.std::locale" }
%"struct.std::ios_base::_Callback_list" = type { %"struct.std::ios_base::_Callback_list"*, void (i32, %"class.std::ios_base"*, i32)*, i32, i32 }
%"struct.std::ios_base::_Words" = type { i8*, i64 }
%"class.std::locale" = type { %"class.std::locale::_Impl"* }
%"class.std::locale::_Impl" = type { i32, %"class.std::locale::facet"**, i64, %"class.std::locale::facet"**, i8** }
%"class.std::locale::facet" = type <{ i32 (...)**, i32, [4 x i8] }>
%"class.std::basic_ostream" = type { i32 (...)**, %"class.std::basic_ios" }
%"class.std::basic_streambuf" = type { i32 (...)**, i8*, i8*, i8*, i8*, i8*, i8*, %"class.std::locale" }
%"class.std::ctype" = type <{ %"class.std::locale::facet.base", [4 x i8], %struct.__locale_struct*, i8, [7 x i8], i32*, i32*, i16*, i8, [256 x i8], [256 x i8], i8, [6 x i8] }>
%"class.std::locale::facet.base" = type <{ i32 (...)**, i32 }>
%struct.__locale_struct = type { [13 x %struct.__locale_data*], i16*, i32*, i32*, [13 x i8*] }
%struct.__locale_data = type opaque
%"class.std::num_put" = type { %"class.std::locale::facet.base", [4 x i8] }
%"class.std::num_get" = type { %"class.std::locale::facet.base", [4 x i8] }

@_ZStL8__ioinit = internal global %"class.std::ios_base::Init" zeroinitializer, align 1
@__dso_handle = external hidden global i8
@a = dso_local global [1000 x i8] zeroinitializer, align 16
@_ZSt3cin = external global %"class.std::basic_istream", align 8
@_ZSt4cout = external global %"class.std::basic_ostream", align 8
@llvm.global_ctors = appending global [1 x { i32, void ()*, i8* }] [{ i32, void ()*, i8* } { i32 65535, void ()* @_GLOBAL__sub_I_746.cpp, i8* null }]

declare void @_ZNSt8ios_base4InitC1Ev(%"class.std::ios_base::Init"* nonnull align 1 dereferenceable(1)) unnamed_addr #0

; Function Attrs: nounwind
declare void @_ZNSt8ios_base4InitD1Ev(%"class.std::ios_base::Init"* nonnull align 1 dereferenceable(1)) unnamed_addr #1

; Function Attrs: nofree nounwind
declare i32 @__cxa_atexit(void (i8*)*, i8*, i8*) local_unnamed_addr #2

; Function Attrs: mustprogress norecurse sspstrong uwtable
define dso_local i32 @main() local_unnamed_addr #3 {
  %1 = alloca i32, align 4
  %2 = bitcast i32* %1 to i8*
  call void @llvm.lifetime.start.p0i8(i64 4, i8* nonnull %2) #9
  %3 = call nonnull align 8 dereferenceable(16) %"class.std::basic_istream"* @_ZNSirsERi(%"class.std::basic_istream"* nonnull align 8 dereferenceable(16) @_ZSt3cin, i32* nonnull align 4 dereferenceable(4) %1)
  %4 = call i32 @_ZNSi3getEv(%"class.std::basic_istream"* nonnull align 8 dereferenceable(16) @_ZSt3cin)
  %5 = load i32, i32* %1, align 4, !tbaa !5
  %6 = icmp slt i32 %5, 1
  br i1 %6, label %103, label %7

7:                                                ; preds = %0, %96
  %8 = phi i32 [ %100, %96 ], [ 1, %0 ]
  call void @llvm.memset.p0i8.i64(i8* noundef nonnull align 16 dereferenceable(1000) getelementptr inbounds ([1000 x i8], [1000 x i8]* @a, i64 0, i64 0), i8 0, i64 1000, i1 false)
  %9 = load i8*, i8** bitcast (%"class.std::basic_istream"* @_ZSt3cin to i8**), align 8, !tbaa !9
  %10 = getelementptr i8, i8* %9, i64 -24
  %11 = bitcast i8* %10 to i64*
  %12 = load i64, i64* %11, align 8
  %13 = add nsw i64 %12, 240
  %14 = getelementptr inbounds i8, i8* bitcast (%"class.std::basic_istream"* @_ZSt3cin to i8*), i64 %13
  %15 = bitcast i8* %14 to %"class.std::ctype"**
  %16 = load %"class.std::ctype"*, %"class.std::ctype"** %15, align 8, !tbaa !11
  %17 = icmp eq %"class.std::ctype"* %16, null
  br i1 %17, label %18, label %19

18:                                               ; preds = %7
  call void @_ZSt16__throw_bad_castv() #10
  unreachable

19:                                               ; preds = %7
  %20 = getelementptr inbounds %"class.std::ctype", %"class.std::ctype"* %16, i64 0, i32 8
  %21 = load i8, i8* %20, align 8, !tbaa !15
  %22 = icmp eq i8 %21, 0
  br i1 %22, label %26, label %23

23:                                               ; preds = %19
  %24 = getelementptr inbounds %"class.std::ctype", %"class.std::ctype"* %16, i64 0, i32 9, i64 10
  %25 = load i8, i8* %24, align 1, !tbaa !17
  br label %32

26:                                               ; preds = %19
  call void @_ZNKSt5ctypeIcE13_M_widen_initEv(%"class.std::ctype"* nonnull align 8 dereferenceable(570) %16)
  %27 = bitcast %"class.std::ctype"* %16 to i8 (%"class.std::ctype"*, i8)***
  %28 = load i8 (%"class.std::ctype"*, i8)**, i8 (%"class.std::ctype"*, i8)*** %27, align 8, !tbaa !9
  %29 = getelementptr inbounds i8 (%"class.std::ctype"*, i8)*, i8 (%"class.std::ctype"*, i8)** %28, i64 6
  %30 = load i8 (%"class.std::ctype"*, i8)*, i8 (%"class.std::ctype"*, i8)** %29, align 8
  %31 = call signext i8 %30(%"class.std::ctype"* nonnull align 8 dereferenceable(570) %16, i8 signext 10)
  br label %32

32:                                               ; preds = %23, %26
  %33 = phi i8 [ %25, %23 ], [ %31, %26 ]
  %34 = call nonnull align 8 dereferenceable(16) %"class.std::basic_istream"* @_ZNSi7getlineEPclc(%"class.std::basic_istream"* nonnull align 8 dereferenceable(16) @_ZSt3cin, i8* getelementptr inbounds ([1000 x i8], [1000 x i8]* @a, i64 0, i64 0), i64 1000, i8 signext %33)
  %35 = load i8, i8* getelementptr inbounds ([1000 x i8], [1000 x i8]* @a, i64 0, i64 0), align 16, !tbaa !17
  %36 = add i8 %35, -65
  %37 = icmp ult i8 %36, 26
  br i1 %37, label %45, label %38

38:                                               ; preds = %32
  %39 = add i8 %35, -97
  %40 = icmp ult i8 %39, 26
  %41 = icmp eq i8 %35, 95
  %42 = or i1 %41, %40
  br i1 %42, label %45, label %43

43:                                               ; preds = %38
  %44 = icmp eq i8 %35, 0
  br i1 %44, label %68, label %45

45:                                               ; preds = %43, %38, %32
  %46 = phi i32 [ 1, %32 ], [ 1, %38 ], [ 0, %43 ]
  br label %47

47:                                               ; preds = %45, %62
  %48 = phi i64 [ %64, %62 ], [ 0, %45 ]
  %49 = phi i8 [ %66, %62 ], [ %35, %45 ]
  %50 = phi i32 [ %63, %62 ], [ %46, %45 ]
  %51 = add i8 %49, -65
  %52 = icmp ult i8 %51, 26
  br i1 %52, label %62, label %53

53:                                               ; preds = %47
  %54 = add i8 %49, -97
  %55 = icmp ult i8 %54, 26
  %56 = icmp eq i8 %49, 95
  %57 = or i1 %56, %55
  br i1 %57, label %62, label %58

58:                                               ; preds = %53
  %59 = add i8 %49, -48
  %60 = icmp ult i8 %59, 10
  %61 = select i1 %60, i32 %50, i32 0
  br label %62

62:                                               ; preds = %58, %53, %47
  %63 = phi i32 [ %50, %47 ], [ %50, %53 ], [ %61, %58 ]
  %64 = add nuw i64 %48, 1
  %65 = getelementptr inbounds [1000 x i8], [1000 x i8]* @a, i64 0, i64 %64
  %66 = load i8, i8* %65, align 1, !tbaa !17
  %67 = icmp eq i8 %66, 0
  br i1 %67, label %68, label %47, !llvm.loop !18

68:                                               ; preds = %62, %43
  %69 = phi i32 [ 0, %43 ], [ %63, %62 ]
  %70 = call nonnull align 8 dereferenceable(8) %"class.std::basic_ostream"* @_ZNSolsEi(%"class.std::basic_ostream"* nonnull align 8 dereferenceable(8) @_ZSt4cout, i32 %69)
  %71 = bitcast %"class.std::basic_ostream"* %70 to i8**
  %72 = load i8*, i8** %71, align 8, !tbaa !9
  %73 = getelementptr i8, i8* %72, i64 -24
  %74 = bitcast i8* %73 to i64*
  %75 = load i64, i64* %74, align 8
  %76 = bitcast %"class.std::basic_ostream"* %70 to i8*
  %77 = add nsw i64 %75, 240
  %78 = getelementptr inbounds i8, i8* %76, i64 %77
  %79 = bitcast i8* %78 to %"class.std::ctype"**
  %80 = load %"class.std::ctype"*, %"class.std::ctype"** %79, align 8, !tbaa !11
  %81 = icmp eq %"class.std::ctype"* %80, null
  br i1 %81, label %82, label %83

82:                                               ; preds = %68
  call void @_ZSt16__throw_bad_castv() #10
  unreachable

83:                                               ; preds = %68
  %84 = getelementptr inbounds %"class.std::ctype", %"class.std::ctype"* %80, i64 0, i32 8
  %85 = load i8, i8* %84, align 8, !tbaa !15
  %86 = icmp eq i8 %85, 0
  br i1 %86, label %90, label %87

87:                                               ; preds = %83
  %88 = getelementptr inbounds %"class.std::ctype", %"class.std::ctype"* %80, i64 0, i32 9, i64 10
  %89 = load i8, i8* %88, align 1, !tbaa !17
  br label %96

90:                                               ; preds = %83
  call void @_ZNKSt5ctypeIcE13_M_widen_initEv(%"class.std::ctype"* nonnull align 8 dereferenceable(570) %80)
  %91 = bitcast %"class.std::ctype"* %80 to i8 (%"class.std::ctype"*, i8)***
  %92 = load i8 (%"class.std::ctype"*, i8)**, i8 (%"class.std::ctype"*, i8)*** %91, align 8, !tbaa !9
  %93 = getelementptr inbounds i8 (%"class.std::ctype"*, i8)*, i8 (%"class.std::ctype"*, i8)** %92, i64 6
  %94 = load i8 (%"class.std::ctype"*, i8)*, i8 (%"class.std::ctype"*, i8)** %93, align 8
  %95 = call signext i8 %94(%"class.std::ctype"* nonnull align 8 dereferenceable(570) %80, i8 signext 10)
  br label %96

96:                                               ; preds = %87, %90
  %97 = phi i8 [ %89, %87 ], [ %95, %90 ]
  %98 = call nonnull align 8 dereferenceable(8) %"class.std::basic_ostream"* @_ZNSo3putEc(%"class.std::basic_ostream"* nonnull align 8 dereferenceable(8) %70, i8 signext %97)
  %99 = call nonnull align 8 dereferenceable(8) %"class.std::basic_ostream"* @_ZNSo5flushEv(%"class.std::basic_ostream"* nonnull align 8 dereferenceable(8) %98)
  %100 = add nuw nsw i32 %8, 1
  %101 = load i32, i32* %1, align 4, !tbaa !5
  %102 = icmp slt i32 %8, %101
  br i1 %102, label %7, label %103, !llvm.loop !20

103:                                              ; preds = %96, %0
  call void @llvm.lifetime.end.p0i8(i64 4, i8* nonnull %2) #9
  ret i32 0
}

; Function Attrs: argmemonly mustprogress nofree nosync nounwind willreturn
declare void @llvm.lifetime.start.p0i8(i64 immarg, i8* nocapture) #4

declare nonnull align 8 dereferenceable(16) %"class.std::basic_istream"* @_ZNSirsERi(%"class.std::basic_istream"* nonnull align 8 dereferenceable(16), i32* nonnull align 4 dereferenceable(4)) local_unnamed_addr #0

declare i32 @_ZNSi3getEv(%"class.std::basic_istream"* nonnull align 8 dereferenceable(16)) local_unnamed_addr #0

; Function Attrs: argmemonly mustprogress nofree nounwind willreturn writeonly
declare void @llvm.memset.p0i8.i64(i8* nocapture writeonly, i8, i64, i1 immarg) #5

declare nonnull align 8 dereferenceable(8) %"class.std::basic_ostream"* @_ZNSolsEi(%"class.std::basic_ostream"* nonnull align 8 dereferenceable(8), i32) local_unnamed_addr #0

; Function Attrs: mustprogress nofree norecurse nosync nounwind readonly sspstrong uwtable willreturn
define dso_local i32 @_Z5Judgev() local_unnamed_addr #6 {
  %1 = load i8, i8* getelementptr inbounds ([1000 x i8], [1000 x i8]* @a, i64 0, i64 0), align 16, !tbaa !17
  %2 = add i8 %1, -65
  %3 = icmp ult i8 %2, 26
  br i1 %3, label %11, label %4

4:                                                ; preds = %0
  %5 = add i8 %1, -97
  %6 = icmp ult i8 %5, 26
  %7 = icmp eq i8 %1, 95
  %8 = or i1 %7, %6
  br i1 %8, label %11, label %9

9:                                                ; preds = %4
  %10 = icmp eq i8 %1, 0
  br i1 %10, label %34, label %11

11:                                               ; preds = %4, %0, %9
  %12 = phi i32 [ 0, %9 ], [ 1, %0 ], [ 1, %4 ]
  br label %13

13:                                               ; preds = %11, %28
  %14 = phi i64 [ %30, %28 ], [ 0, %11 ]
  %15 = phi i8 [ %32, %28 ], [ %1, %11 ]
  %16 = phi i32 [ %29, %28 ], [ %12, %11 ]
  %17 = add i8 %15, -65
  %18 = icmp ult i8 %17, 26
  br i1 %18, label %28, label %19

19:                                               ; preds = %13
  %20 = add i8 %15, -97
  %21 = icmp ult i8 %20, 26
  %22 = icmp eq i8 %15, 95
  %23 = or i1 %22, %21
  br i1 %23, label %28, label %24

24:                                               ; preds = %19
  %25 = add i8 %15, -48
  %26 = icmp ult i8 %25, 10
  %27 = select i1 %26, i32 %16, i32 0
  br label %28

28:                                               ; preds = %24, %19, %13
  %29 = phi i32 [ %16, %13 ], [ %16, %19 ], [ %27, %24 ]
  %30 = add nuw i64 %14, 1
  %31 = getelementptr inbounds [1000 x i8], [1000 x i8]* @a, i64 0, i64 %30
  %32 = load i8, i8* %31, align 1, !tbaa !17
  %33 = icmp eq i8 %32, 0
  br i1 %33, label %34, label %13, !llvm.loop !18

34:                                               ; preds = %28, %9
  %35 = phi i32 [ 0, %9 ], [ %29, %28 ]
  ret i32 %35
}

; Function Attrs: argmemonly mustprogress nofree nosync nounwind willreturn
declare void @llvm.lifetime.end.p0i8(i64 immarg, i8* nocapture) #4

declare nonnull align 8 dereferenceable(16) %"class.std::basic_istream"* @_ZNSi7getlineEPclc(%"class.std::basic_istream"* nonnull align 8 dereferenceable(16), i8*, i64, i8 signext) local_unnamed_addr #0

; Function Attrs: noreturn
declare void @_ZSt16__throw_bad_castv() local_unnamed_addr #7

declare void @_ZNKSt5ctypeIcE13_M_widen_initEv(%"class.std::ctype"* nonnull align 8 dereferenceable(570)) local_unnamed_addr #0

declare nonnull align 8 dereferenceable(8) %"class.std::basic_ostream"* @_ZNSo3putEc(%"class.std::basic_ostream"* nonnull align 8 dereferenceable(8), i8 signext) local_unnamed_addr #0

declare nonnull align 8 dereferenceable(8) %"class.std::basic_ostream"* @_ZNSo5flushEv(%"class.std::basic_ostream"* nonnull align 8 dereferenceable(8)) local_unnamed_addr #0

; Function Attrs: sspstrong uwtable
define internal void @_GLOBAL__sub_I_746.cpp() #8 section ".text.startup" {
  tail call void @_ZNSt8ios_base4InitC1Ev(%"class.std::ios_base::Init"* nonnull align 1 dereferenceable(1) @_ZStL8__ioinit)
  %1 = tail call i32 @__cxa_atexit(void (i8*)* bitcast (void (%"class.std::ios_base::Init"*)* @_ZNSt8ios_base4InitD1Ev to void (i8*)*), i8* getelementptr inbounds (%"class.std::ios_base::Init", %"class.std::ios_base::Init"* @_ZStL8__ioinit, i64 0, i32 0), i8* nonnull @__dso_handle) #9
  ret void
}


!llvm.module.flags = !{!0, !1, !2, !3}
!llvm.ident = !{!4}

!0 = !{i32 1, !"wchar_size", i32 4}
!1 = !{i32 7, !"PIC Level", i32 2}
!2 = !{i32 7, !"PIE Level", i32 2}
!3 = !{i32 7, !"uwtable", i32 1}
!4 = !{!"clang version 13.0.0"}
!5 = !{!6, !6, i64 0}
!6 = !{!"int", !7, i64 0}
!7 = !{!"omnipotent char", !8, i64 0}
!8 = !{!"Simple C++ TBAA"}
!9 = !{!10, !10, i64 0}
!10 = !{!"vtable pointer", !8, i64 0}
!11 = !{!12, !13, i64 240}
!12 = !{!"_ZTSSt9basic_iosIcSt11char_traitsIcEE", !13, i64 216, !7, i64 224, !14, i64 225, !13, i64 232, !13, i64 240, !13, i64 248, !13, i64 256}
!13 = !{!"any pointer", !7, i64 0}
!14 = !{!"bool", !7, i64 0}
!15 = !{!16, !7, i64 56}
!16 = !{!"_ZTSSt5ctypeIcE", !13, i64 16, !14, i64 24, !13, i64 32, !13, i64 40, !13, i64 48, !7, i64 56, !7, i64 57, !7, i64 313, !7, i64 569}
!17 = !{!7, !7, i64 0}
!18 = distinct !{!18, !19}
!19 = !{!"llvm.loop.mustprogress"}
!20 = distinct !{!20, !19}
